; Function Attrs: mustprogress nofree norecurse nosync nounwind willreturn memory(none) uwtable
define noundef range(i32 -2, -2147483648) i32 @_ZN10open_spiel6y_game6CalcXYEiii(i32 noundef %0, i32 noundef %1, i32 noundef %2) local_unnamed_addr #3 {
  %4 = or i32 %1, %0
  %or.cond = icmp sgt i32 %4, -1
  %5 = icmp slt i32 %0, %2
  %or.cond17 = and i1 %or.cond, %5
  %6 = icmp slt i32 %1, %2
  %or.cond18 = and i1 %6, %or.cond17
  %7 = add nuw nsw i32 %1, %0
  %8 = icmp slt i32 %7, %2
  %or.cond20 = select i1 %or.cond18, i1 %8, i1 false
  %9 = mul nsw i32 %2, %1
  %10 = add nuw nsw i32 %9, %0
  %.0 = select i1 %or.cond20, i32 %10, i32 -2
  ret i32 %.0
}